; Function Attrs: nounwind uwtable
define i32 @avpriv_mpeg4audio_get_config2(ptr noundef writeonly captures(none) %0, ptr noundef %1, i32 noundef %2, i32 noundef %3, ptr noundef %4) local_unnamed_addr #0 {
  %6 = alloca %struct.GetBitContext, align 8
  call void @llvm.lifetime.start.p0(i64 32, ptr nonnull %6) #4
  %7 = icmp slt i32 %2, 1
  br i1 %7, label %23, label %8

8:                                                ; preds = %5
  %9 = icmp samesign ugt i32 %2, 268435455
  %10 = shl nuw nsw i32 %2, 3
  %11 = select i1 %9, i32 -8, i32 %10
  %or.cond.i.i = icmp ult i32 %11, 2147483135
  %12 = icmp ne ptr %1, null
  %or.cond3.i.i = and i1 %12, %or.cond.i.i
  %.018.i.i = select i1 %or.cond3.i.i, i32 %11, i32 0
  %.017.i.i = select i1 %or.cond.i.i, ptr %1, ptr null
  %13 = lshr exact i32 %.018.i.i, 3
  store ptr %.017.i.i, ptr %6, align 8, !tbaa !12
  %14 = getelementptr inbounds nuw i8, ptr %6, i64 20
  store i32 %.018.i.i, ptr %14, align 4, !tbaa !24
  %15 = add nuw nsw i32 %.018.i.i, 8
  %16 = getelementptr inbounds nuw i8, ptr %6, i64 24
  store i32 %15, ptr %16, align 8, !tbaa !11
  %17 = zext nneg i32 %13 to i64
  %18 = getelementptr inbounds nuw i8, ptr %.017.i.i, i64 %17
  %19 = getelementptr inbounds nuw i8, ptr %6, i64 8
  store ptr %18, ptr %19, align 8, !tbaa !28
  %20 = getelementptr inbounds nuw i8, ptr %6, i64 16
  store i32 0, ptr %20, align 8, !tbaa !4
  br i1 %or.cond3.i.i, label %21, label %23

21:                                               ; preds = %8
  %22 = call i32 @ff_mpeg4audio_get_config_gb(ptr noundef %0, ptr noundef nonnull %6, i32 noundef %3, ptr noundef %4)
  br label %23

23:                                               ; preds = %8, %5, %21
  %.0 = phi i32 [ %22, %21 ], [ -1094995529, %5 ], [ -1094995529, %8 ]
  call void @llvm.lifetime.end.p0(i64 32, ptr nonnull %6) #4
  ret i32 %.0
}